target datalayout = "e-m:e-p270:32:32-p271:32:32-p272:64:64-i64:64-i128:128-f80:128-n8:16:32:64-S128"
target triple = "x86_64-pc-linux-gnu"

%"struct.std::_Rb_tree_header" = type { %"struct.std::_Rb_tree_node_base", i64 }
%"struct.std::_Rb_tree_node_base" = type { i32, ptr, ptr, ptr }
%"class.std::__cxx11::basic_string" = type { %"struct.std::__cxx11::basic_string<char>::_Alloc_hider", i64, %union.anon }
%"struct.std::__cxx11::basic_string<char>::_Alloc_hider" = type { ptr }
%union.anon = type { i64, [8 x i8] }
%class.ConstVisitor = type { %class.VNVisitor, i8, i8, i8, i8, i8, i8, i8, i8, i8, i8, i8, i8, ptr, ptr, ptr, ptr, %class.VDouble0, i8, [7 x i8], %class.V3UniqueNames, %"class.std::map.6" }
%class.VNVisitor = type { %class.VNVisitorConst, %class.VNDeleter }
%class.VNVisitorConst = type { ptr }
%class.VNDeleter = type { %"class.std::vector" }
%"class.std::vector" = type { %"struct.std::_Vector_base" }
%"struct.std::_Vector_base" = type { %"struct.std::_Vector_base<AstNode *, std::allocator<AstNode *>>::_Vector_impl" }
%"struct.std::_Vector_base<AstNode *, std::allocator<AstNode *>>::_Vector_impl" = type { %"struct.std::_Vector_base<AstNode *, std::allocator<AstNode *>>::_Vector_impl_data" }
%"struct.std::_Vector_base<AstNode *, std::allocator<AstNode *>>::_Vector_impl_data" = type { ptr, ptr, ptr }
%class.VDouble0 = type { double }
%class.V3UniqueNames = type <{ %"class.std::__cxx11::basic_string", %"class.std::map", i8, [7 x i8] }>
%"class.std::map" = type { %"class.std::_Rb_tree" }
%"class.std::_Rb_tree" = type { %"struct.std::_Rb_tree<std::__cxx11::basic_string<char>, std::pair<const std::__cxx11::basic_string<char>, unsigned int>, std::_Select1st<std::pair<const std::__cxx11::basic_string<char>, unsigned int>>, std::less<std::__cxx11::basic_string<char>>>::_Rb_tree_impl" }
%"struct.std::_Rb_tree<std::__cxx11::basic_string<char>, std::pair<const std::__cxx11::basic_string<char>, unsigned int>, std::_Select1st<std::pair<const std::__cxx11::basic_string<char>, unsigned int>>, std::less<std::__cxx11::basic_string<char>>>::_Rb_tree_impl" = type { [8 x i8], %"struct.std::_Rb_tree_header" }
%"class.std::map.6" = type { %"class.std::_Rb_tree.7" }
%"class.std::_Rb_tree.7" = type { %"struct.std::_Rb_tree<const AstNode *, std::pair<const AstNode *const, bool>, std::_Select1st<std::pair<const AstNode *const, bool>>, std::less<const AstNode *>>::_Rb_tree_impl" }
%"struct.std::_Rb_tree<const AstNode *, std::pair<const AstNode *const, bool>, std::_Select1st<std::pair<const AstNode *const, bool>>, std::less<const AstNode *>>::_Rb_tree_impl" = type { [8 x i8], %"struct.std::_Rb_tree_header" }
%class.VNType = type { i16 }
%class.AstNode = type { ptr, ptr, ptr, ptr, ptr, ptr, ptr, ptr, %class.VNType, %struct.anon, i8, i32, ptr, ptr, ptr, ptr, %class.VNUser, i32, i32, %class.VNUser, %class.VNUser, i32, i32, %class.VNUser }
%struct.anon = type { i8 }
%class.VNUser = type { %union.anon.12 }
%union.anon.12 = type { ptr }

@_ZN9VIsCached14s_cachedCntGblE = external global i64, align 8

; Function Attrs: mustprogress nounwind uwtable
define linkonce_odr dso_local noundef zeroext i1 @_ZeqRK6VNTypeNS_2enE(ptr noundef nonnull align 2 dereferenceable(2) %0, i16 noundef zeroext %1) #6 comdat {
  %3 = alloca ptr, align 8
  %4 = alloca i16, align 2
  store ptr %0, ptr %3, align 8, !tbaa !634
  store i16 %1, ptr %4, align 2, !tbaa !632
  %5 = load ptr, ptr %3, align 8, !tbaa !634
  %6 = getelementptr inbounds nuw %class.VNType, ptr %5, i32 0, i32 0
  %7 = load i16, ptr %6, align 2, !tbaa !636
  %8 = zext i16 %7 to i32
  %9 = load i16, ptr %4, align 2, !tbaa !632
  %10 = zext i16 %9 to i32
  %11 = icmp eq i32 %8, %10
  ret i1 %11
}

; Function Attrs: mustprogress nounwind uwtable
define linkonce_odr dso_local i16 @_ZNK7AstNode4typeEv(ptr noundef nonnull align 8 dereferenceable(152) %0) #6 comdat align 2 {
  %2 = alloca %class.VNType, align 2
  %3 = alloca ptr, align 8
  store ptr %0, ptr %3, align 8, !tbaa !4
  %4 = load ptr, ptr %3, align 8
  %5 = getelementptr inbounds nuw %class.AstNode, ptr %4, i32 0, i32 8
  call void @llvm.memcpy.p0.p0.i64(ptr align 2 %2, ptr align 8 %5, i64 2, i1 false), !tbaa.struct !631
  %6 = getelementptr inbounds nuw %class.VNType, ptr %2, i32 0, i32 0
  %7 = load i16, ptr %6, align 2
  ret i16 %7
}

; Function Attrs: inlinehint mustprogress uwtable
define linkonce_odr dso_local noundef ptr @_ZN9VNVisitor25iterateSubtreeReturnEditsEP7AstNode(ptr noundef nonnull align 8 dereferenceable(32) %0, ptr noundef %1) #8 comdat align 2 {
  %3 = alloca ptr, align 8
  %4 = alloca ptr, align 8
  store ptr %0, ptr %3, align 8, !tbaa !87
  store ptr %1, ptr %4, align 8, !tbaa !4
  %5 = load ptr, ptr %3, align 8
  %6 = load ptr, ptr %4, align 8, !tbaa !4
  %7 = call noundef ptr @_ZN7AstNode25iterateSubtreeReturnEditsER9VNVisitor(ptr noundef nonnull align 8 dereferenceable(152) %6, ptr noundef nonnull align 8 dereferenceable(32) %5)
  ret ptr %7
}

; Function Attrs: mustprogress nounwind uwtable
define linkonce_odr dso_local void @_ZN9VIsCached14clearCacheTreeEv() #6 comdat align 2 {
  %1 = load i64, ptr @_ZN9VIsCached14s_cachedCntGblE, align 8, !tbaa !525
  %2 = add i64 %1, 1
  store i64 %2, ptr @_ZN9VIsCached14s_cachedCntGblE, align 8, !tbaa !525
  ret void
}

; Function Attrs: mustprogress nounwind uwtable
define linkonce_odr dso_local noundef ptr @_ZNK7AstNode4op3pEv(ptr noundef nonnull align 8 dereferenceable(152) %0) #6 comdat align 2 {
  %2 = alloca ptr, align 8
  store ptr %0, ptr %2, align 8, !tbaa !4
  %3 = load ptr, ptr %2, align 8
  %4 = getelementptr inbounds nuw %class.AstNode, ptr %3, i32 0, i32 5
  %5 = load ptr, ptr %4, align 8, !tbaa !1090
  ret ptr %5
}

; Function Attrs: inlinehint mustprogress nounwind uwtable
define linkonce_odr dso_local noundef zeroext i1 @_ZN7AstNode15privateTypeTestI6AstVarEEbPKS_(ptr noundef %0) #9 comdat align 2 {
  %2 = alloca ptr, align 8
  %3 = alloca %class.VNType, align 2
  store ptr %0, ptr %2, align 8, !tbaa !4
  call void @llvm.lifetime.start.p0(i64 2, ptr %3) #3
  %4 = load ptr, ptr %2, align 8, !tbaa !4
  %5 = call i16 @_ZNK7AstNode4typeEv(ptr noundef nonnull align 8 dereferenceable(152) %4)
  %6 = getelementptr inbounds nuw %class.VNType, ptr %3, i32 0, i32 0
  store i16 %5, ptr %6, align 2
  %7 = call noundef zeroext i1 @_ZeqRK6VNTypeNS_2enE(ptr noundef nonnull align 2 dereferenceable(2) %3, i16 noundef zeroext 49)
  call void @llvm.lifetime.end.p0(i64 2, ptr %3) #3
  ret i1 %7
}

; Function Attrs: mustprogress uwtable
define linkonce_odr dso_local noundef ptr @_ZN12ConstVisitor14mainAcceptEditEP7AstNode(ptr noundef nonnull align 8 dereferenceable(232) %0, ptr noundef %1) #4 comdat align 2 {
  %3 = alloca ptr, align 8
  %4 = alloca ptr, align 8
  store ptr %0, ptr %3, align 8, !tbaa !11
  store ptr %1, ptr %4, align 8, !tbaa !4
  %5 = load ptr, ptr %3, align 8
  call void @_ZN9VIsCached14clearCacheTreeEv()
  %6 = load ptr, ptr %4, align 8, !tbaa !4
  %7 = call noundef ptr @_ZN9VNVisitor25iterateSubtreeReturnEditsEP7AstNode(ptr noundef nonnull align 8 dereferenceable(32) %5, ptr noundef %6)
  ret ptr %7
}

; Function Attrs: mustprogress nounwind uwtable
define linkonce_odr dso_local noundef ptr @_ZNK6AstVar6valuepEv(ptr noundef nonnull align 8 dereferenceable(280) %0) #6 comdat align 2 {
  %2 = alloca ptr, align 8
  store ptr %0, ptr %2, align 8, !tbaa !9
  %3 = load ptr, ptr %2, align 8
  %4 = call noundef ptr @_ZNK7AstNode4op3pEv(ptr noundef nonnull align 8 dereferenceable(152) %3)
  ret ptr %4
}

; Function Attrs: mustprogress uwtable
define linkonce_odr dso_local noundef ptr @_ZN7AstNode11privateCastI6AstVarPS_EEPT_S2_(ptr noundef %0) #4 comdat align 2 {
  %2 = alloca ptr, align 8
  store ptr %0, ptr %2, align 8, !tbaa !4
  %3 = load ptr, ptr %2, align 8, !tbaa !4
  %4 = icmp ne ptr %3, null
  br i1 %4, label %5, label %10

5:                                                ; preds = %1
  %6 = load ptr, ptr %2, align 8, !tbaa !4
  %7 = call noundef zeroext i1 @_ZN7AstNode15privateTypeTestI6AstVarEEbPKS_(ptr noundef %6)
  br i1 %7, label %8, label %10

8:                                                ; preds = %5
  %9 = load ptr, ptr %2, align 8, !tbaa !4
  br label %11

10:                                               ; preds = %5, %1
  br label %11

11:                                               ; preds = %10, %8
  %12 = phi ptr [ %9, %8 ], [ null, %10 ]
  ret ptr %12
}

; Function Attrs: mustprogress uwtable
define dso_local noundef ptr @_ZN7V3Const18constifyParamsEditEP7AstNode(ptr noundef %0) #4 align 2 personality ptr @__gxx_personality_v0 {
  %2 = alloca ptr, align 8
  %3 = alloca %class.ConstVisitor, align 8
  %4 = alloca ptr, align 8
  %5 = alloca ptr, align 8
  %6 = alloca i32, align 4
  store ptr %0, ptr %2, align 8, !tbaa !4
  %7 = load ptr, ptr %2, align 8, !tbaa !4
  %8 = call noundef ptr @_ZN7V3Width15widthParamsEditEP7AstNode(ptr noundef %7)
  store ptr %8, ptr %2, align 8, !tbaa !4
  call void @llvm.lifetime.start.p0(i64 232, ptr %3) #3
  call void @_ZN12ConstVisitorC2ENS_8ProcModeEb(ptr noundef nonnull align 8 dereferenceable(232) %3, i8 noundef zeroext 1, i1 noundef zeroext false)
  call void @llvm.lifetime.start.p0(i64 8, ptr %4) #3
  %9 = load ptr, ptr %2, align 8, !tbaa !4
  %10 = invoke noundef ptr @_ZN7AstNode11privateCastI6AstVarPS_EEPT_S2_(ptr noundef %9)
          to label %11 unwind label %25

11:                                               ; preds = %1
  store ptr %10, ptr %4, align 8, !tbaa !9
  %12 = load ptr, ptr %4, align 8, !tbaa !9
  %13 = icmp ne ptr %12, null
  br i1 %13, label %14, label %30

14:                                               ; preds = %11
  %15 = load ptr, ptr %4, align 8, !tbaa !9
  %16 = invoke noundef ptr @_ZNK6AstVar6valuepEv(ptr noundef nonnull align 8 dereferenceable(280) %15)
          to label %17 unwind label %25

17:                                               ; preds = %14
  %18 = icmp ne ptr %16, null
  br i1 %18, label %19, label %29

19:                                               ; preds = %17
  %20 = load ptr, ptr %4, align 8, !tbaa !9
  %21 = invoke noundef ptr @_ZNK6AstVar6valuepEv(ptr noundef nonnull align 8 dereferenceable(280) %20)
          to label %22 unwind label %25

22:                                               ; preds = %19
  %23 = invoke noundef ptr @_ZN12ConstVisitor14mainAcceptEditEP7AstNode(ptr noundef nonnull align 8 dereferenceable(232) %3, ptr noundef %21)
          to label %24 unwind label %25

24:                                               ; preds = %22
  br label %29

25:                                               ; preds = %30, %22, %19, %14, %1
  %26 = landingpad { ptr, i32 }
          cleanup
  %27 = extractvalue { ptr, i32 } %26, 0
  store ptr %27, ptr %5, align 8
  %28 = extractvalue { ptr, i32 } %26, 1
  store i32 %28, ptr %6, align 4
  call void @llvm.lifetime.end.p0(i64 8, ptr %4) #3
  call void @_ZN12ConstVisitorD2Ev(ptr noundef nonnull align 8 dereferenceable(232) %3) #3
  call void @llvm.lifetime.end.p0(i64 232, ptr %3) #3
  br label %36

29:                                               ; preds = %24, %17
  br label %34

30:                                               ; preds = %11
  %31 = load ptr, ptr %2, align 8, !tbaa !4
  %32 = invoke noundef ptr @_ZN12ConstVisitor14mainAcceptEditEP7AstNode(ptr noundef nonnull align 8 dereferenceable(232) %3, ptr noundef %31)
          to label %33 unwind label %25

33:                                               ; preds = %30
  store ptr %32, ptr %2, align 8, !tbaa !4
  br label %34

34:                                               ; preds = %33, %29
  call void @llvm.lifetime.end.p0(i64 8, ptr %4) #3
  %35 = load ptr, ptr %2, align 8, !tbaa !4
  call void @_ZN12ConstVisitorD2Ev(ptr noundef nonnull align 8 dereferenceable(232) %3) #3
  call void @llvm.lifetime.end.p0(i64 232, ptr %3) #3
  ret ptr %35

36:                                               ; preds = %25
  %37 = load ptr, ptr %5, align 8
  %38 = load i32, ptr %6, align 4
  %39 = insertvalue { ptr, i32 } poison, ptr %37, 0
  %40 = insertvalue { ptr, i32 } %39, i32 %38, 1
  resume { ptr, i32 } %40
}